; Function Attrs: mustprogress uwtable
define hidden i32 @mbedtls_md_update(ptr noundef readonly captures(address_is_null) %0, ptr noundef %1, i64 noundef %2) local_unnamed_addr #5 {
  %4 = icmp eq ptr %0, null
  br i1 %4, label %23, label %5

5:                                                ; preds = %3
  %6 = load ptr, ptr %0, align 8, !tbaa !3
  %7 = icmp eq ptr %6, null
  br i1 %7, label %23, label %8

8:                                                ; preds = %5
  %9 = getelementptr inbounds nuw i8, ptr %6, i64 8
  %10 = load i32, ptr %9, align 8, !tbaa !10
  switch i32 %10, label %23 [
    i32 2, label %11
    i32 3, label %15
    i32 4, label %19
  ]

11:                                               ; preds = %8
  %12 = getelementptr inbounds nuw i8, ptr %0, i64 8
  %13 = load ptr, ptr %12, align 8, !tbaa !9
  %14 = tail call i32 @mbedtls_sha1_update(ptr noundef %13, ptr noundef %1, i64 noundef %2)
  br label %23

15:                                               ; preds = %8
  %16 = getelementptr inbounds nuw i8, ptr %0, i64 8
  %17 = load ptr, ptr %16, align 8, !tbaa !9
  %18 = tail call i32 @mbedtls_sha256_update(ptr noundef %17, ptr noundef %1, i64 noundef %2)
  br label %23

19:                                               ; preds = %8
  %20 = getelementptr inbounds nuw i8, ptr %0, i64 8
  %21 = load ptr, ptr %20, align 8, !tbaa !9
  %22 = tail call i32 @mbedtls_sha256_update(ptr noundef %21, ptr noundef %1, i64 noundef %2)
  br label %23

23:                                               ; preds = %8, %3, %5, %19, %15, %11
  %.0 = phi i32 [ %22, %19 ], [ %18, %15 ], [ %14, %11 ], [ -20736, %5 ], [ -20736, %3 ], [ -20736, %8 ]
  ret i32 %.0
}